; Function Attrs: nounwind uwtable
define ptr @l_Array_forIn_x27Unsafe_loop___at_Lean_Elab_Command_wrapAsyncAsSnapshot___spec__6___boxed(ptr noundef %0, ptr noundef %1, ptr noundef %2, ptr noundef %3, ptr noundef %4, ptr noundef %5, ptr noundef %6, ptr noundef %7, ptr noundef %8, ptr noundef %9, ptr noundef %10, ptr noundef %11, ptr noundef %12, ptr noundef %13) local_unnamed_addr #0 {
  %15 = getelementptr i8, ptr %8, i64 8
  %.val53 = load i64, ptr %15, align 8, !tbaa !11
  %16 = ptrtoint ptr %8 to i64
  %17 = and i64 %16, 1
  %.not = icmp eq i64 %17, 0
  br i1 %.not, label %18, label %lean_dec.exit34

18:                                               ; preds = %14
  %19 = load i32, ptr %8, align 4, !tbaa !4
  %20 = icmp sgt i32 %19, 1
  br i1 %20, label %21, label %23, !prof !13

21:                                               ; preds = %18
  %22 = add nsw i32 %19, -1
  store i32 %22, ptr %8, align 4, !tbaa !4
  br label %lean_dec.exit34

23:                                               ; preds = %18
  %.not.i = icmp eq i32 %19, 0
  br i1 %.not.i, label %lean_dec.exit34, label %24

24:                                               ; preds = %23
  tail call void @lean_dec_ref_cold(ptr noundef nonnull %8) #6
  br label %lean_dec.exit34

lean_dec.exit34:                                  ; preds = %24, %23, %21, %14
  %25 = getelementptr i8, ptr %9, i64 8
  %.val = load i64, ptr %25, align 8, !tbaa !11
  %26 = ptrtoint ptr %9 to i64
  %27 = and i64 %26, 1
  %.not54 = icmp eq i64 %27, 0
  br i1 %.not54, label %28, label %lean_dec.exit33

28:                                               ; preds = %lean_dec.exit34
  %29 = load i32, ptr %9, align 4, !tbaa !4
  %30 = icmp sgt i32 %29, 1
  br i1 %30, label %31, label %33, !prof !13

31:                                               ; preds = %28
  %32 = add nsw i32 %29, -1
  store i32 %32, ptr %9, align 4, !tbaa !4
  br label %lean_dec.exit33

33:                                               ; preds = %28
  %.not.i35 = icmp eq i32 %29, 0
  br i1 %.not.i35, label %lean_dec.exit33, label %34

34:                                               ; preds = %33
  tail call void @lean_dec_ref_cold(ptr noundef nonnull %9) #6
  br label %lean_dec.exit33

lean_dec.exit33:                                  ; preds = %34, %33, %31, %lean_dec.exit34
  %35 = tail call ptr @l_Array_forIn_x27Unsafe_loop___at_Lean_Elab_Command_wrapAsyncAsSnapshot___spec__6(ptr noundef %0, ptr noundef %1, ptr noundef %2, ptr noundef %3, ptr poison, ptr poison, ptr noundef %6, ptr noundef %7, i64 noundef %.val53, i64 noundef %.val, ptr noundef %10, ptr noundef %11, ptr noundef %12, ptr noundef %13)
  %36 = ptrtoint ptr %12 to i64
  %37 = and i64 %36, 1
  %.not55 = icmp eq i64 %37, 0
  br i1 %.not55, label %38, label %lean_dec.exit32

38:                                               ; preds = %lean_dec.exit33
  %39 = load i32, ptr %12, align 4, !tbaa !4
  %40 = icmp sgt i32 %39, 1
  br i1 %40, label %41, label %43, !prof !13

41:                                               ; preds = %38
  %42 = add nsw i32 %39, -1
  store i32 %42, ptr %12, align 4, !tbaa !4
  br label %lean_dec.exit32

43:                                               ; preds = %38
  %.not.i37 = icmp eq i32 %39, 0
  br i1 %.not.i37, label %lean_dec.exit32, label %44

44:                                               ; preds = %43
  tail call void @lean_dec_ref_cold(ptr noundef nonnull %12) #6
  br label %lean_dec.exit32

lean_dec.exit32:                                  ; preds = %44, %43, %41, %lean_dec.exit33
  %45 = ptrtoint ptr %11 to i64
  %46 = and i64 %45, 1
  %.not56 = icmp eq i64 %46, 0
  br i1 %.not56, label %47, label %lean_dec.exit31

47:                                               ; preds = %lean_dec.exit32
  %48 = load i32, ptr %11, align 4, !tbaa !4
  %49 = icmp sgt i32 %48, 1
  br i1 %49, label %50, label %52, !prof !13

50:                                               ; preds = %47
  %51 = add nsw i32 %48, -1
  store i32 %51, ptr %11, align 4, !tbaa !4
  br label %lean_dec.exit31

52:                                               ; preds = %47
  %.not.i39 = icmp eq i32 %48, 0
  br i1 %.not.i39, label %lean_dec.exit31, label %53

53:                                               ; preds = %52
  tail call void @lean_dec_ref_cold(ptr noundef nonnull %11) #6
  br label %lean_dec.exit31

lean_dec.exit31:                                  ; preds = %53, %52, %50, %lean_dec.exit32
  %54 = ptrtoint ptr %7 to i64
  %55 = and i64 %54, 1
  %.not57 = icmp eq i64 %55, 0
  br i1 %.not57, label %56, label %lean_dec.exit30

56:                                               ; preds = %lean_dec.exit31
  %57 = load i32, ptr %7, align 4, !tbaa !4
  %58 = icmp sgt i32 %57, 1
  br i1 %58, label %59, label %61, !prof !13

59:                                               ; preds = %56
  %60 = add nsw i32 %57, -1
  store i32 %60, ptr %7, align 4, !tbaa !4
  br label %lean_dec.exit30

61:                                               ; preds = %56
  %.not.i41 = icmp eq i32 %57, 0
  br i1 %.not.i41, label %lean_dec.exit30, label %62

62:                                               ; preds = %61
  tail call void @lean_dec_ref_cold(ptr noundef nonnull %7) #6
  br label %lean_dec.exit30

lean_dec.exit30:                                  ; preds = %62, %61, %59, %lean_dec.exit31
  %63 = ptrtoint ptr %5 to i64
  %64 = and i64 %63, 1
  %.not58 = icmp eq i64 %64, 0
  br i1 %.not58, label %65, label %lean_dec.exit29

65:                                               ; preds = %lean_dec.exit30
  %66 = load i32, ptr %5, align 4, !tbaa !4
  %67 = icmp sgt i32 %66, 1
  br i1 %67, label %68, label %70, !prof !13

68:                                               ; preds = %65
  %69 = add nsw i32 %66, -1
  store i32 %69, ptr %5, align 4, !tbaa !4
  br label %lean_dec.exit29

70:                                               ; preds = %65
  %.not.i43 = icmp eq i32 %66, 0
  br i1 %.not.i43, label %lean_dec.exit29, label %71

71:                                               ; preds = %70
  tail call void @lean_dec_ref_cold(ptr noundef nonnull %5) #6
  br label %lean_dec.exit29

lean_dec.exit29:                                  ; preds = %71, %70, %68, %lean_dec.exit30
  %72 = ptrtoint ptr %4 to i64
  %73 = and i64 %72, 1
  %.not59 = icmp eq i64 %73, 0
  br i1 %.not59, label %74, label %lean_dec.exit28

74:                                               ; preds = %lean_dec.exit29
  %75 = load i32, ptr %4, align 4, !tbaa !4
  %76 = icmp sgt i32 %75, 1
  br i1 %76, label %77, label %79, !prof !13

77:                                               ; preds = %74
  %78 = add nsw i32 %75, -1
  store i32 %78, ptr %4, align 4, !tbaa !4
  br label %lean_dec.exit28

79:                                               ; preds = %74
  %.not.i45 = icmp eq i32 %75, 0
  br i1 %.not.i45, label %lean_dec.exit28, label %80

80:                                               ; preds = %79
  tail call void @lean_dec_ref_cold(ptr noundef nonnull %4) #6
  br label %lean_dec.exit28

lean_dec.exit28:                                  ; preds = %80, %79, %77, %lean_dec.exit29
  %81 = ptrtoint ptr %3 to i64
  %82 = and i64 %81, 1
  %.not60 = icmp eq i64 %82, 0
  br i1 %.not60, label %83, label %lean_dec.exit27

83:                                               ; preds = %lean_dec.exit28
  %84 = load i32, ptr %3, align 4, !tbaa !4
  %85 = icmp sgt i32 %84, 1
  br i1 %85, label %86, label %88, !prof !13

86:                                               ; preds = %83
  %87 = add nsw i32 %84, -1
  store i32 %87, ptr %3, align 4, !tbaa !4
  br label %lean_dec.exit27

88:                                               ; preds = %83
  %.not.i47 = icmp eq i32 %84, 0
  br i1 %.not.i47, label %lean_dec.exit27, label %89

89:                                               ; preds = %88
  tail call void @lean_dec_ref_cold(ptr noundef nonnull %3) #6
  br label %lean_dec.exit27

lean_dec.exit27:                                  ; preds = %89, %88, %86, %lean_dec.exit28
  %90 = ptrtoint ptr %1 to i64
  %91 = and i64 %90, 1
  %.not61 = icmp eq i64 %91, 0
  br i1 %.not61, label %92, label %lean_dec.exit26

92:                                               ; preds = %lean_dec.exit27
  %93 = load i32, ptr %1, align 4, !tbaa !4
  %94 = icmp sgt i32 %93, 1
  br i1 %94, label %95, label %97, !prof !13

95:                                               ; preds = %92
  %96 = add nsw i32 %93, -1
  store i32 %96, ptr %1, align 4, !tbaa !4
  br label %lean_dec.exit26

97:                                               ; preds = %92
  %.not.i49 = icmp eq i32 %93, 0
  br i1 %.not.i49, label %lean_dec.exit26, label %98

98:                                               ; preds = %97
  tail call void @lean_dec_ref_cold(ptr noundef nonnull %1) #6
  br label %lean_dec.exit26

lean_dec.exit26:                                  ; preds = %98, %97, %95, %lean_dec.exit27
  %99 = ptrtoint ptr %0 to i64
  %100 = and i64 %99, 1
  %.not62 = icmp eq i64 %100, 0
  br i1 %.not62, label %101, label %lean_dec.exit

101:                                              ; preds = %lean_dec.exit26
  %102 = load i32, ptr %0, align 4, !tbaa !4
  %103 = icmp sgt i32 %102, 1
  br i1 %103, label %104, label %106, !prof !13

104:                                              ; preds = %101
  %105 = add nsw i32 %102, -1
  store i32 %105, ptr %0, align 4, !tbaa !4
  br label %lean_dec.exit

106:                                              ; preds = %101
  %.not.i51 = icmp eq i32 %102, 0
  br i1 %.not.i51, label %lean_dec.exit, label %107

107:                                              ; preds = %106
  tail call void @lean_dec_ref_cold(ptr noundef nonnull %0) #6
  br label %lean_dec.exit

lean_dec.exit:                                    ; preds = %107, %106, %104, %lean_dec.exit26
  ret ptr %35
}